S'{"map": [[96, 336], [96, 352], [96, 368], [288, 368], [304, 368], [320, 368], [96, 384], [288, 384], [96, 400], [112, 400], [128, 400], [144, 400], [160, 400], [176, 400], [192, 400], [208, 400], [224, 400], [240, 400], [256, 400], [272, 400], [288, 400]], "endpoints": [[320, 352]], "enemies": [], "objects": [], "player": [128, 382]}'
p0
.